; Function Attrs: mustprogress nounwind uwtable
define dso_local noundef zeroext i1 @_ZN4llvm2cl6parserIyE5parseERNS0_6OptionENS_9StringRefES5_Ry(ptr nocapture noundef nonnull readnone align 8 dereferenceable(8) %0, ptr nocapture noundef nonnull readonly align 8 dereferenceable(128) %1, ptr nocapture readnone %2, i64 %3, ptr %4, i64 %5, ptr nocapture noundef nonnull writeonly align 8 dereferenceable(8) %6) local_unnamed_addr #0 align 2 {
  %8 = alloca i64, align 8
  %9 = alloca %"class.llvm::Twine", align 8
  %10 = alloca %"class.llvm::Twine", align 8
  call void @llvm.lifetime.start.p0(i64 8, ptr nonnull %8)
  %11 = call noundef zeroext i1 @_ZN4llvm20getAsUnsignedIntegerENS_9StringRefEjRy(ptr %4, i64 %5, i32 noundef 0, ptr noundef nonnull align 8 dereferenceable(8) %8) #25
  br i1 %11, label %_ZN4llvmplERKNS_5TwineES2_.exit, label %_ZNK4llvm9StringRef12getAsIntegerIyEEbjRT_.exit

_ZNK4llvm9StringRef12getAsIntegerIyEEbjRT_.exit:  ; preds = %7
  %12 = load i64, ptr %8, align 8
  store i64 %12, ptr %6, align 8
  call void @llvm.lifetime.end.p0(i64 8, ptr nonnull %8)
  br label %22

_ZN4llvmplERKNS_5TwineES2_.exit:                  ; preds = %7
  call void @llvm.lifetime.end.p0(i64 8, ptr nonnull %8)
  %13 = getelementptr inbounds nuw i8, ptr %10, i64 32
  store i8 3, ptr %13, align 8, !alias.scope !280
  %14 = getelementptr inbounds nuw i8, ptr %10, i64 33
  store i8 5, ptr %14, align 1, !alias.scope !280
  store ptr @.str.9, ptr %10, align 8, !alias.scope !280
  %15 = getelementptr inbounds nuw i8, ptr %10, i64 16
  store ptr %4, ptr %15, align 8, !alias.scope !280
  %16 = getelementptr inbounds i8, ptr %10, i64 24
  store i64 %5, ptr %16, align 8, !alias.scope !280
  store ptr %10, ptr %9, align 8, !alias.scope !283
  %17 = getelementptr inbounds nuw i8, ptr %9, i64 16
  store ptr @.str.26, ptr %17, align 8, !alias.scope !283
  %18 = getelementptr inbounds nuw i8, ptr %9, i64 32
  store i8 2, ptr %18, align 8, !alias.scope !283
  %19 = getelementptr inbounds nuw i8, ptr %9, i64 33
  store i8 3, ptr %19, align 1, !alias.scope !283
  %20 = call noundef nonnull align 8 dereferenceable(96) ptr @_ZN4llvm4errsEv() #25
  %21 = call noundef zeroext i1 @_ZN4llvm2cl6Option5errorERKNS_5TwineENS_9StringRefERNS_11raw_ostreamE(ptr noundef nonnull align 8 dereferenceable(128) %1, ptr noundef nonnull align 8 dereferenceable(34) %9, ptr null, i64 0, ptr noundef nonnull align 8 dereferenceable(48) %20)
  br label %22

22:                                               ; preds = %_ZNK4llvm9StringRef12getAsIntegerIyEEbjRT_.exit, %_ZN4llvmplERKNS_5TwineES2_.exit
  ret i1 %11
}